target datalayout = "e-m:e-p270:32:32-p271:32:32-p272:64:64-i64:64-i128:128-f80:128-n8:16:32:64-S128"
target triple = "x86_64-pc-linux-gnu"

%"class.cv::util::variant.331" = type { i64, [1 x %"union.std::aligned_storage<168, 8>::type"] }
%"union.std::aligned_storage<168, 8>::type" = type { [168 x i8] }
%"class.(anonymous namespace)::QueueReader" = type { i8, %"class.std::vector.599" }
%"class.std::vector.599" = type { %"struct.std::_Vector_base.600" }
%"struct.std::_Vector_base.600" = type { %"struct.std::_Vector_base<cv::util::variant<cv::util::monostate, cv::gimpl::stream::Start, cv::gimpl::stream::Stop, cv::GRunArg, cv::gimpl::stream::Result, cv::gimpl::Exception>, std::allocator<cv::util::variant<cv::util::monostate, cv::gimpl::stream::Start, cv::gimpl::stream::Stop, cv::GRunArg, cv::gimpl::stream::Result, cv::gimpl::Exception>>>::_Vector_impl" }
%"struct.std::_Vector_base<cv::util::variant<cv::util::monostate, cv::gimpl::stream::Start, cv::gimpl::stream::Stop, cv::GRunArg, cv::gimpl::stream::Result, cv::gimpl::Exception>, std::allocator<cv::util::variant<cv::util::monostate, cv::gimpl::stream::Start, cv::gimpl::stream::Stop, cv::GRunArg, cv::gimpl::stream::Result, cv::gimpl::Exception>>>::_Vector_impl" = type { %"struct.std::_Vector_base<cv::util::variant<cv::util::monostate, cv::gimpl::stream::Start, cv::gimpl::stream::Stop, cv::GRunArg, cv::gimpl::stream::Result, cv::gimpl::Exception>, std::allocator<cv::util::variant<cv::util::monostate, cv::gimpl::stream::Start, cv::gimpl::stream::Stop, cv::GRunArg, cv::gimpl::stream::Result, cv::gimpl::Exception>>>::_Vector_impl_data" }
%"struct.std::_Vector_base<cv::util::variant<cv::util::monostate, cv::gimpl::stream::Start, cv::gimpl::stream::Stop, cv::GRunArg, cv::gimpl::stream::Result, cv::gimpl::Exception>, std::allocator<cv::util::variant<cv::util::monostate, cv::gimpl::stream::Start, cv::gimpl::stream::Stop, cv::GRunArg, cv::gimpl::stream::Result, cv::gimpl::Exception>>>::_Vector_impl_data" = type { ptr, ptr, ptr }
%"struct.std::array.562" = type { [6 x ptr] }

; Function Attrs: mustprogress nounwind uwtable
define linkonce_odr hidden noundef nonnull align 8 dereferenceable(8) ptr @_ZNSt14__array_traitsIPFvPNSt15aligned_storageILm168ELm8EE4typeEELm6EE6_S_refERA6_KS5_m(ptr noundef nonnull align 8 dereferenceable(48) %0, i64 noundef %1) #5 comdat align 2 {
  %3 = alloca ptr, align 8
  %4 = alloca i64, align 8
  store ptr %0, ptr %3, align 8, !tbaa !1110
  store i64 %1, ptr %4, align 8, !tbaa !139
  %5 = load ptr, ptr %3, align 8, !tbaa !1110
  %6 = load i64, ptr %4, align 8, !tbaa !139
  %7 = getelementptr inbounds nuw [6 x ptr], ptr %5, i64 0, i64 %6
  ret ptr %7
}

; Function Attrs: mustprogress nounwind uwtable
define linkonce_odr hidden noundef nonnull align 8 dereferenceable(8) ptr @_ZNSt5arrayIPFvPNSt15aligned_storageILm168ELm8EE4typeEELm6EEixEm(ptr noundef nonnull align 8 dereferenceable(48) %0, i64 noundef %1) #5 comdat align 2 {
  %3 = alloca ptr, align 8
  %4 = alloca i64, align 8
  store ptr %0, ptr %3, align 8, !tbaa !1518
  store i64 %1, ptr %4, align 8, !tbaa !139
  %5 = load ptr, ptr %3, align 8
  %6 = getelementptr inbounds nuw %"struct.std::array.562", ptr %5, i32 0, i32 0
  %7 = load i64, ptr %4, align 8, !tbaa !139
  %8 = call noundef nonnull align 8 dereferenceable(8) ptr @_ZNSt14__array_traitsIPFvPNSt15aligned_storageILm168ELm8EE4typeEELm6EE6_S_refERA6_KS5_m(ptr noundef nonnull align 8 dereferenceable(48) %6, i64 noundef %7) #3
  ret ptr %8
}

; Function Attrs: mustprogress nounwind uwtable
define linkonce_odr hidden void @_ZN2cv4util7variantIJNS0_9monostateENS_5gimpl6stream5StartENS4_4StopENS_7GRunArgENS4_6ResultENS3_9ExceptionEEE5dtorsEv(ptr dead_on_unwind noalias writable sret(%"struct.std::array.562") align 8 %0) #5 comdat align 2 {
  %2 = getelementptr inbounds nuw %"struct.std::array.562", ptr %0, i32 0, i32 0
  call void @llvm.memcpy.p0.p0.i64(ptr align 8 %2, ptr align 8 @constinit.48, i64 48, i1 false), !tbaa.struct !1420
  ret void
}

; Function Attrs: mustprogress nounwind uwtable
define linkonce_odr hidden void @_ZN2cv4util7variantIJNS0_9monostateENS_5gimpl6stream5StartENS4_4StopENS_7GRunArgENS4_6ResultENS3_9ExceptionEEED2Ev(ptr noundef nonnull align 8 dereferenceable(176) %0) unnamed_addr #5 comdat align 2 personality ptr @__gxx_personality_v0 {
  %2 = alloca ptr, align 8
  %3 = alloca %"struct.std::array.562", align 8
  store ptr %0, ptr %2, align 8, !tbaa !557
  %4 = load ptr, ptr %2, align 8
  call void @llvm.lifetime.start.p0(i64 48, ptr %3) #3
  call void @_ZN2cv4util7variantIJNS0_9monostateENS_5gimpl6stream5StartENS4_4StopENS_7GRunArgENS4_6ResultENS3_9ExceptionEEE5dtorsEv(ptr dead_on_unwind writable sret(%"struct.std::array.562") align 8 %3)
  %5 = getelementptr inbounds nuw %"class.cv::util::variant.331", ptr %4, i32 0, i32 0
  %6 = load i64, ptr %5, align 8, !tbaa !560
  %7 = call noundef nonnull align 8 dereferenceable(8) ptr @_ZNSt5arrayIPFvPNSt15aligned_storageILm168ELm8EE4typeEELm6EEixEm(ptr noundef nonnull align 8 dereferenceable(48) %3, i64 noundef %6) #3
  %8 = load ptr, ptr %7, align 8, !tbaa !264
  %9 = getelementptr inbounds nuw %"class.cv::util::variant.331", ptr %4, i32 0, i32 1
  %10 = getelementptr inbounds [1 x %"union.std::aligned_storage<168, 8>::type"], ptr %9, i64 0, i64 0
  invoke void %8(ptr noundef %10)
          to label %11 unwind label %12

11:                                               ; preds = %1
  call void @llvm.lifetime.end.p0(i64 48, ptr %3) #3
  ret void

12:                                               ; preds = %1
  %13 = landingpad { ptr, i32 }
          catch ptr null
  %14 = extractvalue { ptr, i32 } %13, 0
  call void @__clang_call_terminate(ptr %14) #29
  unreachable
}

; Function Attrs: mustprogress nounwind uwtable
define linkonce_odr hidden void @_ZNSt15__new_allocatorIN2cv4util7variantIJNS1_9monostateENS0_5gimpl6stream5StartENS5_4StopENS0_7GRunArgENS5_6ResultENS4_9ExceptionEEEEE10deallocateEPSB_m(ptr noundef nonnull align 1 dereferenceable(1) %0, ptr noundef %1, i64 noundef %2) #5 comdat align 2 {
  %4 = alloca ptr, align 8
  %5 = alloca ptr, align 8
  %6 = alloca i64, align 8
  store ptr %0, ptr %4, align 8, !tbaa !825
  store ptr %1, ptr %5, align 8, !tbaa !557
  store i64 %2, ptr %6, align 8, !tbaa !139
  %7 = load ptr, ptr %5, align 8, !tbaa !557
  call void @_ZdlPv(ptr noundef %7) #28
  ret void
}

; Function Attrs: inlinehint mustprogress nounwind uwtable
define linkonce_odr hidden void @_ZSt8_DestroyIN2cv4util7variantIJNS1_9monostateENS0_5gimpl6stream5StartENS5_4StopENS0_7GRunArgENS5_6ResultENS4_9ExceptionEEEEEvPT_(ptr noundef %0) #9 comdat {
  %2 = alloca ptr, align 8
  store ptr %0, ptr %2, align 8, !tbaa !557
  %3 = load ptr, ptr %2, align 8, !tbaa !557
  call void @_ZN2cv4util7variantIJNS0_9monostateENS_5gimpl6stream5StartENS4_4StopENS_7GRunArgENS4_6ResultENS3_9ExceptionEEED2Ev(ptr noundef nonnull align 8 dereferenceable(176) %3) #3
  ret void
}

; Function Attrs: mustprogress uwtable
define linkonce_odr hidden void @_ZNSt16allocator_traitsISaIN2cv4util7variantIJNS1_9monostateENS0_5gimpl6stream5StartENS5_4StopENS0_7GRunArgENS5_6ResultENS4_9ExceptionEEEEEE10deallocateERSC_PSB_m(ptr noundef nonnull align 1 dereferenceable(1) %0, ptr noundef %1, i64 noundef %2) #4 comdat align 2 {
  %4 = alloca ptr, align 8
  %5 = alloca ptr, align 8
  %6 = alloca i64, align 8
  store ptr %0, ptr %4, align 8, !tbaa !838
  store ptr %1, ptr %5, align 8, !tbaa !557
  store i64 %2, ptr %6, align 8, !tbaa !139
  %7 = load ptr, ptr %4, align 8, !tbaa !838
  %8 = load ptr, ptr %5, align 8, !tbaa !557
  %9 = load i64, ptr %6, align 8, !tbaa !139
  call void @_ZNSt15__new_allocatorIN2cv4util7variantIJNS1_9monostateENS0_5gimpl6stream5StartENS5_4StopENS0_7GRunArgENS5_6ResultENS4_9ExceptionEEEEE10deallocateEPSB_m(ptr noundef nonnull align 1 dereferenceable(1) %7, ptr noundef %8, i64 noundef %9)
  ret void
}

; Function Attrs: mustprogress uwtable
define linkonce_odr hidden void @_ZNSt12_Destroy_auxILb0EE9__destroyIPN2cv4util7variantIJNS3_9monostateENS2_5gimpl6stream5StartENS7_4StopENS2_7GRunArgENS7_6ResultENS6_9ExceptionEEEEEEvT_SF_(ptr noundef %0, ptr noundef %1) #4 comdat align 2 {
  %3 = alloca ptr, align 8
  %4 = alloca ptr, align 8
  store ptr %0, ptr %3, align 8, !tbaa !557
  store ptr %1, ptr %4, align 8, !tbaa !557
  br label %5

5:                                                ; preds = %11, %2
  %6 = load ptr, ptr %3, align 8, !tbaa !557
  %7 = load ptr, ptr %4, align 8, !tbaa !557
  %8 = icmp ne ptr %6, %7
  br i1 %8, label %9, label %14

9:                                                ; preds = %5
  %10 = load ptr, ptr %3, align 8, !tbaa !557
  call void @_ZSt8_DestroyIN2cv4util7variantIJNS1_9monostateENS0_5gimpl6stream5StartENS5_4StopENS0_7GRunArgENS5_6ResultENS4_9ExceptionEEEEEvPT_(ptr noundef %10)
  br label %11

11:                                               ; preds = %9
  %12 = load ptr, ptr %3, align 8, !tbaa !557
  %13 = getelementptr inbounds nuw %"class.cv::util::variant.331", ptr %12, i32 1
  store ptr %13, ptr %3, align 8, !tbaa !557
  br label %5, !llvm.loop !1590

14:                                               ; preds = %5
  ret void
}

; Function Attrs: mustprogress nounwind uwtable
define linkonce_odr hidden void @_ZNSt15__new_allocatorIN2cv4util7variantIJNS1_9monostateENS0_5gimpl6stream5StartENS5_4StopENS0_7GRunArgENS5_6ResultENS4_9ExceptionEEEEED2Ev(ptr noundef nonnull align 1 dereferenceable(1) %0) unnamed_addr #5 comdat align 2 {
  %2 = alloca ptr, align 8
  store ptr %0, ptr %2, align 8, !tbaa !825
  ret void
}

; Function Attrs: mustprogress uwtable
define linkonce_odr hidden void @_ZNSt12_Vector_baseIN2cv4util7variantIJNS1_9monostateENS0_5gimpl6stream5StartENS5_4StopENS0_7GRunArgENS5_6ResultENS4_9ExceptionEEEESaISB_EE13_M_deallocateEPSB_m(ptr noundef nonnull align 8 dereferenceable(24) %0, ptr noundef %1, i64 noundef %2) #4 comdat align 2 {
  %4 = alloca ptr, align 8
  %5 = alloca ptr, align 8
  %6 = alloca i64, align 8
  store ptr %0, ptr %4, align 8, !tbaa !1786
  store ptr %1, ptr %5, align 8, !tbaa !557
  store i64 %2, ptr %6, align 8, !tbaa !139
  %7 = load ptr, ptr %4, align 8
  %8 = load ptr, ptr %5, align 8, !tbaa !557
  %9 = icmp ne ptr %8, null
  br i1 %9, label %10, label %14

10:                                               ; preds = %3
  %11 = getelementptr inbounds nuw %"struct.std::_Vector_base.600", ptr %7, i32 0, i32 0
  %12 = load ptr, ptr %5, align 8, !tbaa !557
  %13 = load i64, ptr %6, align 8, !tbaa !139
  call void @_ZNSt16allocator_traitsISaIN2cv4util7variantIJNS1_9monostateENS0_5gimpl6stream5StartENS5_4StopENS0_7GRunArgENS5_6ResultENS4_9ExceptionEEEEEE10deallocateERSC_PSB_m(ptr noundef nonnull align 1 dereferenceable(1) %11, ptr noundef %12, i64 noundef %13)
  br label %14

14:                                               ; preds = %10, %3
  ret void
}

; Function Attrs: inlinehint mustprogress uwtable
define linkonce_odr hidden void @_ZSt8_DestroyIPN2cv4util7variantIJNS1_9monostateENS0_5gimpl6stream5StartENS5_4StopENS0_7GRunArgENS5_6ResultENS4_9ExceptionEEEEEvT_SD_(ptr noundef %0, ptr noundef %1) #6 comdat {
  %3 = alloca ptr, align 8
  %4 = alloca ptr, align 8
  store ptr %0, ptr %3, align 8, !tbaa !557
  store ptr %1, ptr %4, align 8, !tbaa !557
  %5 = load ptr, ptr %3, align 8, !tbaa !557
  %6 = load ptr, ptr %4, align 8, !tbaa !557
  call void @_ZNSt12_Destroy_auxILb0EE9__destroyIPN2cv4util7variantIJNS3_9monostateENS2_5gimpl6stream5StartENS7_4StopENS2_7GRunArgENS7_6ResultENS6_9ExceptionEEEEEEvT_SF_(ptr noundef %5, ptr noundef %6)
  ret void
}

; Function Attrs: mustprogress nounwind uwtable
define linkonce_odr hidden void @_ZNSt12_Vector_baseIN2cv4util7variantIJNS1_9monostateENS0_5gimpl6stream5StartENS5_4StopENS0_7GRunArgENS5_6ResultENS4_9ExceptionEEEESaISB_EED2Ev(ptr noundef nonnull align 8 dereferenceable(24) %0) unnamed_addr #5 comdat align 2 personality ptr @__gxx_personality_v0 {
  %2 = alloca ptr, align 8
  store ptr %0, ptr %2, align 8, !tbaa !1786
  %3 = load ptr, ptr %2, align 8
  %4 = getelementptr inbounds nuw %"struct.std::_Vector_base.600", ptr %3, i32 0, i32 0
  %5 = getelementptr inbounds nuw %"struct.std::_Vector_base<cv::util::variant<cv::util::monostate, cv::gimpl::stream::Start, cv::gimpl::stream::Stop, cv::GRunArg, cv::gimpl::stream::Result, cv::gimpl::Exception>, std::allocator<cv::util::variant<cv::util::monostate, cv::gimpl::stream::Start, cv::gimpl::stream::Stop, cv::GRunArg, cv::gimpl::stream::Result, cv::gimpl::Exception>>>::_Vector_impl_data", ptr %4, i32 0, i32 0
  %6 = load ptr, ptr %5, align 8, !tbaa !1783
  %7 = getelementptr inbounds nuw %"struct.std::_Vector_base.600", ptr %3, i32 0, i32 0
  %8 = getelementptr inbounds nuw %"struct.std::_Vector_base<cv::util::variant<cv::util::monostate, cv::gimpl::stream::Start, cv::gimpl::stream::Stop, cv::GRunArg, cv::gimpl::stream::Result, cv::gimpl::Exception>, std::allocator<cv::util::variant<cv::util::monostate, cv::gimpl::stream::Start, cv::gimpl::stream::Stop, cv::GRunArg, cv::gimpl::stream::Result, cv::gimpl::Exception>>>::_Vector_impl_data", ptr %7, i32 0, i32 2
  %9 = load ptr, ptr %8, align 8, !tbaa !1788
  %10 = getelementptr inbounds nuw %"struct.std::_Vector_base.600", ptr %3, i32 0, i32 0
  %11 = getelementptr inbounds nuw %"struct.std::_Vector_base<cv::util::variant<cv::util::monostate, cv::gimpl::stream::Start, cv::gimpl::stream::Stop, cv::GRunArg, cv::gimpl::stream::Result, cv::gimpl::Exception>, std::allocator<cv::util::variant<cv::util::monostate, cv::gimpl::stream::Start, cv::gimpl::stream::Stop, cv::GRunArg, cv::gimpl::stream::Result, cv::gimpl::Exception>>>::_Vector_impl_data", ptr %10, i32 0, i32 0
  %12 = load ptr, ptr %11, align 8, !tbaa !1783
  %13 = ptrtoint ptr %9 to i64
  %14 = ptrtoint ptr %12 to i64
  %15 = sub i64 %13, %14
  %16 = sdiv exact i64 %15, 176
  invoke void @_ZNSt12_Vector_baseIN2cv4util7variantIJNS1_9monostateENS0_5gimpl6stream5StartENS5_4StopENS0_7GRunArgENS5_6ResultENS4_9ExceptionEEEESaISB_EE13_M_deallocateEPSB_m(ptr noundef nonnull align 8 dereferenceable(24) %3, ptr noundef %6, i64 noundef %16)
          to label %17 unwind label %19

17:                                               ; preds = %1
  %18 = getelementptr inbounds nuw %"struct.std::_Vector_base.600", ptr %3, i32 0, i32 0
  call void @_ZNSt15__new_allocatorIN2cv4util7variantIJNS1_9monostateENS0_5gimpl6stream5StartENS5_4StopENS0_7GRunArgENS5_6ResultENS4_9ExceptionEEEEED2Ev(ptr noundef nonnull align 8 dereferenceable(24) %18) #3
  ret void

19:                                               ; preds = %1
  %20 = landingpad { ptr, i32 }
          catch ptr null
  %21 = extractvalue { ptr, i32 } %20, 0
  call void @__clang_call_terminate(ptr %21) #29
  unreachable
}

; Function Attrs: inlinehint mustprogress uwtable
define linkonce_odr hidden void @_ZSt8_DestroyIPN2cv4util7variantIJNS1_9monostateENS0_5gimpl6stream5StartENS5_4StopENS0_7GRunArgENS5_6ResultENS4_9ExceptionEEEESB_EvT_SD_RSaIT0_E(ptr noundef %0, ptr noundef %1, ptr noundef nonnull align 1 dereferenceable(1) %2) #6 comdat {
  %4 = alloca ptr, align 8
  %5 = alloca ptr, align 8
  %6 = alloca ptr, align 8
  store ptr %0, ptr %4, align 8, !tbaa !557
  store ptr %1, ptr %5, align 8, !tbaa !557
  store ptr %2, ptr %6, align 8, !tbaa !838
  %7 = load ptr, ptr %4, align 8, !tbaa !557
  %8 = load ptr, ptr %5, align 8, !tbaa !557
  call void @_ZSt8_DestroyIPN2cv4util7variantIJNS1_9monostateENS0_5gimpl6stream5StartENS5_4StopENS0_7GRunArgENS5_6ResultENS4_9ExceptionEEEEEvT_SD_(ptr noundef %7, ptr noundef %8)
  ret void
}

; Function Attrs: mustprogress nounwind uwtable
define linkonce_odr hidden noundef nonnull align 1 dereferenceable(1) ptr @_ZNSt12_Vector_baseIN2cv4util7variantIJNS1_9monostateENS0_5gimpl6stream5StartENS5_4StopENS0_7GRunArgENS5_6ResultENS4_9ExceptionEEEESaISB_EE19_M_get_Tp_allocatorEv(ptr noundef nonnull align 8 dereferenceable(24) %0) #5 comdat align 2 {
  %2 = alloca ptr, align 8
  store ptr %0, ptr %2, align 8, !tbaa !1786
  %3 = load ptr, ptr %2, align 8
  %4 = getelementptr inbounds nuw %"struct.std::_Vector_base.600", ptr %3, i32 0, i32 0
  ret ptr %4
}

; Function Attrs: mustprogress nounwind uwtable
define linkonce_odr hidden void @_ZNSt6vectorIN2cv4util7variantIJNS1_9monostateENS0_5gimpl6stream5StartENS5_4StopENS0_7GRunArgENS5_6ResultENS4_9ExceptionEEEESaISB_EED2Ev(ptr noundef nonnull align 8 dereferenceable(24) %0) unnamed_addr #5 comdat align 2 personality ptr @__gxx_personality_v0 {
  %2 = alloca ptr, align 8
  store ptr %0, ptr %2, align 8, !tbaa !1731
  %3 = load ptr, ptr %2, align 8
  %4 = getelementptr inbounds nuw %"struct.std::_Vector_base.600", ptr %3, i32 0, i32 0
  %5 = getelementptr inbounds nuw %"struct.std::_Vector_base<cv::util::variant<cv::util::monostate, cv::gimpl::stream::Start, cv::gimpl::stream::Stop, cv::GRunArg, cv::gimpl::stream::Result, cv::gimpl::Exception>, std::allocator<cv::util::variant<cv::util::monostate, cv::gimpl::stream::Start, cv::gimpl::stream::Stop, cv::GRunArg, cv::gimpl::stream::Result, cv::gimpl::Exception>>>::_Vector_impl_data", ptr %4, i32 0, i32 0
  %6 = load ptr, ptr %5, align 8, !tbaa !1783
  %7 = getelementptr inbounds nuw %"struct.std::_Vector_base.600", ptr %3, i32 0, i32 0
  %8 = getelementptr inbounds nuw %"struct.std::_Vector_base<cv::util::variant<cv::util::monostate, cv::gimpl::stream::Start, cv::gimpl::stream::Stop, cv::GRunArg, cv::gimpl::stream::Result, cv::gimpl::Exception>, std::allocator<cv::util::variant<cv::util::monostate, cv::gimpl::stream::Start, cv::gimpl::stream::Stop, cv::GRunArg, cv::gimpl::stream::Result, cv::gimpl::Exception>>>::_Vector_impl_data", ptr %7, i32 0, i32 1
  %9 = load ptr, ptr %8, align 8, !tbaa !1785
  %10 = call noundef nonnull align 1 dereferenceable(1) ptr @_ZNSt12_Vector_baseIN2cv4util7variantIJNS1_9monostateENS0_5gimpl6stream5StartENS5_4StopENS0_7GRunArgENS5_6ResultENS4_9ExceptionEEEESaISB_EE19_M_get_Tp_allocatorEv(ptr noundef nonnull align 8 dereferenceable(24) %3) #3
  invoke void @_ZSt8_DestroyIPN2cv4util7variantIJNS1_9monostateENS0_5gimpl6stream5StartENS5_4StopENS0_7GRunArgENS5_6ResultENS4_9ExceptionEEEESB_EvT_SD_RSaIT0_E(ptr noundef %6, ptr noundef %9, ptr noundef nonnull align 1 dereferenceable(1) %10)
          to label %11 unwind label %12

11:                                               ; preds = %1
  call void @_ZNSt12_Vector_baseIN2cv4util7variantIJNS1_9monostateENS0_5gimpl6stream5StartENS5_4StopENS0_7GRunArgENS5_6ResultENS4_9ExceptionEEEESaISB_EED2Ev(ptr noundef nonnull align 8 dereferenceable(24) %3) #3
  ret void

12:                                               ; preds = %1
  %13 = landingpad { ptr, i32 }
          catch ptr null
  %14 = extractvalue { ptr, i32 } %13, 0
  call void @__clang_call_terminate(ptr %14) #29
  unreachable
}

; Function Attrs: inlinehint mustprogress nounwind uwtable
define internal void @_ZN12_GLOBAL__N_111QueueReaderD2Ev(ptr noundef nonnull align 8 dereferenceable(32) %0) unnamed_addr #9 align 2 {
  %2 = alloca ptr, align 8
  store ptr %0, ptr %2, align 8, !tbaa !548
  %3 = load ptr, ptr %2, align 8
  %4 = getelementptr inbounds nuw %"class.(anonymous namespace)::QueueReader", ptr %3, i32 0, i32 1
  call void @_ZNSt6vectorIN2cv4util7variantIJNS1_9monostateENS0_5gimpl6stream5StartENS5_4StopENS0_7GRunArgENS5_6ResultENS4_9ExceptionEEEESaISB_EED2Ev(ptr noundef nonnull align 8 dereferenceable(24) %4) #3
  ret void
}