; Function Attrs: inlinehint mustprogress nounwind uwtable
define internal fastcc void @_ZN12_GLOBAL__N_111QueueReaderD2Ev(ptr noundef nonnull readonly align 8 captures(none) dereferenceable(32) %0) unnamed_addr #10 align 2 personality ptr @__gxx_personality_v0 {
  %2 = getelementptr inbounds nuw i8, ptr %0, i64 8
  %3 = load ptr, ptr %2, align 8, !tbaa !982
  %4 = getelementptr inbounds nuw i8, ptr %0, i64 16
  %5 = load ptr, ptr %4, align 8, !tbaa !983
  %.not4.i.i.i.i = icmp eq ptr %3, %5
  br i1 %.not4.i.i.i.i, label %_ZSt8_DestroyIPN2cv4util7variantIJNS1_9monostateENS0_5gimpl6stream5StartENS5_4StopENS0_7GRunArgENS5_6ResultENS4_9ExceptionEEEESB_EvT_SD_RSaIT0_E.exit.i, label %.lr.ph.i.i.i.i

.lr.ph.i.i.i.i:                                   ; preds = %1, %_ZSt8_DestroyIN2cv4util7variantIJNS1_9monostateENS0_5gimpl6stream5StartENS5_4StopENS0_7GRunArgENS5_6ResultENS4_9ExceptionEEEEEvPT_.exit.i.i.i.i
  %.05.i.i.i.i = phi ptr [ %13, %_ZSt8_DestroyIN2cv4util7variantIJNS1_9monostateENS0_5gimpl6stream5StartENS5_4StopENS0_7GRunArgENS5_6ResultENS4_9ExceptionEEEEEvPT_.exit.i.i.i.i ], [ %3, %1 ]
  %6 = load i64, ptr %.05.i.i.i.i, align 8, !tbaa !716
  %7 = getelementptr inbounds nuw [6 x ptr], ptr @constinit.48, i64 0, i64 %6
  %8 = load ptr, ptr %7, align 8, !tbaa !35
  %9 = getelementptr inbounds nuw i8, ptr %.05.i.i.i.i, i64 8
  invoke void %8(ptr noundef nonnull %9)
          to label %_ZSt8_DestroyIN2cv4util7variantIJNS1_9monostateENS0_5gimpl6stream5StartENS5_4StopENS0_7GRunArgENS5_6ResultENS4_9ExceptionEEEEEvPT_.exit.i.i.i.i unwind label %10

10:                                               ; preds = %.lr.ph.i.i.i.i
  %11 = landingpad { ptr, i32 }
          catch ptr null
  %12 = extractvalue { ptr, i32 } %11, 0
  tail call void @__clang_call_terminate(ptr %12) #34
  unreachable

_ZSt8_DestroyIN2cv4util7variantIJNS1_9monostateENS0_5gimpl6stream5StartENS5_4StopENS0_7GRunArgENS5_6ResultENS4_9ExceptionEEEEEvPT_.exit.i.i.i.i: ; preds = %.lr.ph.i.i.i.i
  %13 = getelementptr inbounds nuw i8, ptr %.05.i.i.i.i, i64 176
  %.not.i.i.i.i = icmp eq ptr %13, %5
  br i1 %.not.i.i.i.i, label %_ZSt8_DestroyIPN2cv4util7variantIJNS1_9monostateENS0_5gimpl6stream5StartENS5_4StopENS0_7GRunArgENS5_6ResultENS4_9ExceptionEEEESB_EvT_SD_RSaIT0_E.exitthread-pre-split.i, label %.lr.ph.i.i.i.i, !llvm.loop !984

_ZSt8_DestroyIPN2cv4util7variantIJNS1_9monostateENS0_5gimpl6stream5StartENS5_4StopENS0_7GRunArgENS5_6ResultENS4_9ExceptionEEEESB_EvT_SD_RSaIT0_E.exitthread-pre-split.i: ; preds = %_ZSt8_DestroyIN2cv4util7variantIJNS1_9monostateENS0_5gimpl6stream5StartENS5_4StopENS0_7GRunArgENS5_6ResultENS4_9ExceptionEEEEEvPT_.exit.i.i.i.i
  %.pr.i = load ptr, ptr %2, align 8, !tbaa !982
  br label %_ZSt8_DestroyIPN2cv4util7variantIJNS1_9monostateENS0_5gimpl6stream5StartENS5_4StopENS0_7GRunArgENS5_6ResultENS4_9ExceptionEEEESB_EvT_SD_RSaIT0_E.exit.i

_ZSt8_DestroyIPN2cv4util7variantIJNS1_9monostateENS0_5gimpl6stream5StartENS5_4StopENS0_7GRunArgENS5_6ResultENS4_9ExceptionEEEESB_EvT_SD_RSaIT0_E.exit.i: ; preds = %_ZSt8_DestroyIPN2cv4util7variantIJNS1_9monostateENS0_5gimpl6stream5StartENS5_4StopENS0_7GRunArgENS5_6ResultENS4_9ExceptionEEEESB_EvT_SD_RSaIT0_E.exitthread-pre-split.i, %1
  %14 = phi ptr [ %.pr.i, %_ZSt8_DestroyIPN2cv4util7variantIJNS1_9monostateENS0_5gimpl6stream5StartENS5_4StopENS0_7GRunArgENS5_6ResultENS4_9ExceptionEEEESB_EvT_SD_RSaIT0_E.exitthread-pre-split.i ], [ %3, %1 ]
  %.not.i.i.i = icmp eq ptr %14, null
  br i1 %.not.i.i.i, label %_ZNSt6vectorIN2cv4util7variantIJNS1_9monostateENS0_5gimpl6stream5StartENS5_4StopENS0_7GRunArgENS5_6ResultENS4_9ExceptionEEEESaISB_EED2Ev.exit, label %15

15:                                               ; preds = %_ZSt8_DestroyIPN2cv4util7variantIJNS1_9monostateENS0_5gimpl6stream5StartENS5_4StopENS0_7GRunArgENS5_6ResultENS4_9ExceptionEEEESB_EvT_SD_RSaIT0_E.exit.i
  tail call void @_ZdlPv(ptr noundef nonnull %14) #31
  br label %_ZNSt6vectorIN2cv4util7variantIJNS1_9monostateENS0_5gimpl6stream5StartENS5_4StopENS0_7GRunArgENS5_6ResultENS4_9ExceptionEEEESaISB_EED2Ev.exit

_ZNSt6vectorIN2cv4util7variantIJNS1_9monostateENS0_5gimpl6stream5StartENS5_4StopENS0_7GRunArgENS5_6ResultENS4_9ExceptionEEEESaISB_EED2Ev.exit: ; preds = %_ZSt8_DestroyIPN2cv4util7variantIJNS1_9monostateENS0_5gimpl6stream5StartENS5_4StopENS0_7GRunArgENS5_6ResultENS4_9ExceptionEEEESB_EvT_SD_RSaIT0_E.exit.i, %15
  ret void
}